target datalayout = "e-m:e-p270:32:32-p271:32:32-p272:64:64-i64:64-i128:128-f80:128-n8:16:32:64-S128"
target triple = "x86_64-pc-linux-gnu"

@num_temp_buffers = external global i32, align 4
@NLocalPinnedBuffers = internal global i32 0, align 4

; Function Attrs: nounwind uwtable
define dso_local void @LimitAdditionalLocalPins(ptr noundef %0) #0 {
  %2 = alloca ptr, align 8
  %3 = alloca i32, align 4
  %4 = alloca i32, align 4
  store ptr %0, ptr %2, align 8
  call void @llvm.lifetime.start.p0(i64 4, ptr %3) #9
  %5 = load ptr, ptr %2, align 8
  %6 = load i32, ptr %5, align 4
  %7 = icmp ule i32 %6, 1
  br i1 %7, label %8, label %9

8:                                                ; preds = %1
  store i32 1, ptr %4, align 4
  br label %21

9:                                                ; preds = %1
  %10 = load i32, ptr @num_temp_buffers, align 4
  %11 = load i32, ptr @NLocalPinnedBuffers, align 4
  %12 = sub i32 %10, %11
  store i32 %12, ptr %3, align 4
  %13 = load ptr, ptr %2, align 8
  %14 = load i32, ptr %13, align 4
  %15 = load i32, ptr %3, align 4
  %16 = icmp uge i32 %14, %15
  br i1 %16, label %17, label %20

17:                                               ; preds = %9
  %18 = load i32, ptr %3, align 4
  %19 = load ptr, ptr %2, align 8
  store i32 %18, ptr %19, align 4
  br label %20

20:                                               ; preds = %17, %9
  store i32 0, ptr %4, align 4
  br label %21

21:                                               ; preds = %20, %8
  call void @llvm.lifetime.end.p0(i64 4, ptr %3) #9
  %22 = load i32, ptr %4, align 4
  switch i32 %22, label %24 [
    i32 0, label %23
    i32 1, label %23
  ]

23:                                               ; preds = %21, %21
  ret void

24:                                               ; preds = %21
  unreachable
}