; Function Attrs: mustprogress nofree norecurse nosync nounwind willreturn memory(read, argmem: readwrite, inaccessiblemem: none) uwtable
define dso_local void @LimitAdditionalLocalPins(ptr noundef captures(none) %0) local_unnamed_addr #6 {
  %2 = load i32, ptr %0, align 4
  %3 = icmp ult i32 %2, 2
  br i1 %3, label %9, label %4

4:                                                ; preds = %1
  %5 = load i32, ptr @num_temp_buffers, align 4
  %6 = load i32, ptr @NLocalPinnedBuffers, align 4
  %7 = sub i32 %5, %6
  %.not = icmp ult i32 %2, %7
  br i1 %.not, label %9, label %8

8:                                                ; preds = %4
  store i32 %7, ptr %0, align 4
  br label %9

9:                                                ; preds = %4, %8, %1
  ret void
}